; Function Attrs: mustprogress nounwind uwtable
define void @_ZN9grpc_core8channelz12ChannelTrace10TraceEventD2Ev(ptr noundef nonnull readonly align 8 captures(none) dereferenceable(80) %0) unnamed_addr #6 align 2 personality ptr @__gxx_personality_v0 {
  %2 = getelementptr inbounds nuw i8, ptr %0, i64 24
  %3 = load ptr, ptr %2, align 8, !tbaa !28
  %4 = icmp ugt ptr %3, inttoptr (i64 1 to ptr)
  br i1 %4, label %5, label %_ZN9grpc_core11CSliceUnrefERK10grpc_sliceNS_13DebugLocationE.exit

5:                                                ; preds = %1
  %6 = atomicrmw sub ptr %3, i64 1 acq_rel, align 8
  %7 = icmp eq i64 %6, 1
  br i1 %7, label %8, label %_ZN9grpc_core11CSliceUnrefERK10grpc_sliceNS_13DebugLocationE.exit

8:                                                ; preds = %5
  %9 = getelementptr inbounds nuw i8, ptr %3, i64 8
  %10 = load ptr, ptr %9, align 8, !tbaa !29
  invoke void %10(ptr noundef nonnull align 8 dereferenceable(16) %3)
          to label %_ZN9grpc_core11CSliceUnrefERK10grpc_sliceNS_13DebugLocationE.exit unwind label %21

_ZN9grpc_core11CSliceUnrefERK10grpc_sliceNS_13DebugLocationE.exit: ; preds = %5, %1, %8
  %11 = getelementptr inbounds nuw i8, ptr %0, i64 64
  %12 = load ptr, ptr %11, align 8, !tbaa !26
  %.not.i = icmp eq ptr %12, null
  br i1 %.not.i, label %_ZN9grpc_core13RefCountedPtrINS_8channelz8BaseNodeEED2Ev.exit, label %13

13:                                               ; preds = %_ZN9grpc_core11CSliceUnrefERK10grpc_sliceNS_13DebugLocationE.exit
  %14 = getelementptr inbounds nuw i8, ptr %12, i64 8
  %15 = atomicrmw sub ptr %14, i64 1 acq_rel, align 8
  %16 = icmp eq i64 %15, 1
  br i1 %16, label %17, label %_ZN9grpc_core13RefCountedPtrINS_8channelz8BaseNodeEED2Ev.exit, !prof !33

17:                                               ; preds = %13
  %18 = load ptr, ptr %12, align 8, !tbaa !8
  %19 = getelementptr inbounds nuw i8, ptr %18, i64 8
  %20 = load ptr, ptr %19, align 8
  tail call void %20(ptr noundef nonnull align 8 dereferenceable(64) %12) #23
  br label %_ZN9grpc_core13RefCountedPtrINS_8channelz8BaseNodeEED2Ev.exit

_ZN9grpc_core13RefCountedPtrINS_8channelz8BaseNodeEED2Ev.exit: ; preds = %_ZN9grpc_core11CSliceUnrefERK10grpc_sliceNS_13DebugLocationE.exit, %13, %17
  ret void

21:                                               ; preds = %8
  %22 = landingpad { ptr, i32 }
          catch ptr null
  %23 = extractvalue { ptr, i32 } %22, 0
  tail call void @__clang_call_terminate(ptr %23) #24
  unreachable
}